target datalayout = "e-m:e-p270:32:32-p271:32:32-p272:64:64-i64:64-i128:128-f80:128-n8:16:32:64-S128"
target triple = "x86_64-pc-linux-gnu"

@.str.46 = private unnamed_addr constant [37 x i8] c"rfc822comments: Invalid parameters.n\00", align 1
@.str.47 = private unnamed_addr constant [56 x i8] c"rfc822comments: Unable to allocate memory for out %llu\0A\00", align 1
@.str.48 = private unnamed_addr constant [36 x i8] c"rfc822comments: contains a comment\0A\00", align 1
@.str.49 = private unnamed_addr constant [27 x i8] c"rfc822comments '%s'=>'%s'\0A\00", align 1

; Function Attrs: nounwind uwtable
define internal ptr @rfc822comments(ptr noundef %0, ptr noundef %1) #0 {
  %3 = alloca ptr, align 8
  %4 = alloca ptr, align 8
  %5 = alloca ptr, align 8
  %6 = alloca ptr, align 8
  %7 = alloca ptr, align 8
  %8 = alloca i32, align 4
  %9 = alloca i32, align 4
  %10 = alloca i32, align 4
  store ptr %0, ptr %4, align 8
  store ptr %1, ptr %5, align 8
  %11 = load ptr, ptr %4, align 8
  %12 = icmp eq ptr %11, null
  br i1 %12, label %17, label %13

13:                                               ; preds = %2
  %14 = load ptr, ptr %5, align 8
  %15 = load ptr, ptr %4, align 8
  %16 = icmp eq ptr %14, %15
  br i1 %16, label %17, label %18

17:                                               ; preds = %13, %2
  call void (ptr, ...) @cli_errmsg(ptr noundef @.str.46)
  store ptr null, ptr %3, align 8
  br label %134

18:                                               ; preds = %13
  %19 = load ptr, ptr %4, align 8
  %20 = call ptr @strchr(ptr noundef %19, i32 noundef 40) #9
  %21 = icmp eq ptr %20, null
  br i1 %21, label %22, label %23

22:                                               ; preds = %18
  store ptr null, ptr %3, align 8
  br label %134

23:                                               ; preds = %18
  br label %24

24:                                               ; preds = %36, %23
  %25 = call ptr @__ctype_b_loc() #10
  %26 = load ptr, ptr %25, align 8
  %27 = load ptr, ptr %4, align 8
  %28 = load i8, ptr %27, align 1
  %29 = zext i8 %28 to i32
  %30 = sext i32 %29 to i64
  %31 = getelementptr inbounds i16, ptr %26, i64 %30
  %32 = load i16, ptr %31, align 2
  %33 = zext i16 %32 to i32
  %34 = and i32 %33, 8192
  %35 = icmp ne i32 %34, 0
  br i1 %35, label %36, label %39

36:                                               ; preds = %24
  %37 = load ptr, ptr %4, align 8
  %38 = getelementptr inbounds i8, ptr %37, i32 1
  store ptr %38, ptr %4, align 8
  br label %24

39:                                               ; preds = %24
  %40 = load ptr, ptr %5, align 8
  %41 = icmp eq ptr %40, null
  br i1 %41, label %42, label %54

42:                                               ; preds = %39
  %43 = load ptr, ptr %4, align 8
  %44 = call i64 @strlen(ptr noundef %43) #9
  %45 = add i64 %44, 1
  %46 = call ptr @cli_max_malloc(i64 noundef %45)
  store ptr %46, ptr %5, align 8
  %47 = load ptr, ptr %5, align 8
  %48 = icmp eq ptr %47, null
  br i1 %48, label %49, label %53

49:                                               ; preds = %42
  %50 = load ptr, ptr %4, align 8
  %51 = call i64 @strlen(ptr noundef %50) #9
  %52 = add i64 %51, 1
  call void (ptr, ...) @cli_errmsg(ptr noundef @.str.47, i64 noundef %52)
  store ptr null, ptr %3, align 8
  br label %134

53:                                               ; preds = %42
  br label %54

54:                                               ; preds = %53, %39
  store i32 0, ptr %9, align 4
  store i32 0, ptr %10, align 4
  store i32 0, ptr %8, align 4
  %55 = load ptr, ptr %5, align 8
  store ptr %55, ptr %7, align 8
  call void (ptr, ...) @cli_dbgmsg(ptr noundef @.str.48)
  %56 = load ptr, ptr %4, align 8
  store ptr %56, ptr %6, align 8
  br label %57

57:                                               ; preds = %120, %54
  %58 = load ptr, ptr %6, align 8
  %59 = load i8, ptr %58, align 1
  %60 = icmp ne i8 %59, 0
  br i1 %60, label %61, label %123

61:                                               ; preds = %57
  %62 = load i32, ptr %8, align 4
  %63 = icmp ne i32 %62, 0
  br i1 %63, label %64, label %73

64:                                               ; preds = %61
  %65 = load i32, ptr %10, align 4
  %66 = icmp eq i32 %65, 0
  br i1 %66, label %67, label %72

67:                                               ; preds = %64
  %68 = load ptr, ptr %6, align 8
  %69 = load i8, ptr %68, align 1
  %70 = load ptr, ptr %7, align 8
  %71 = getelementptr inbounds i8, ptr %70, i32 1
  store ptr %71, ptr %7, align 8
  store i8 %69, ptr %70, align 1
  br label %72

72:                                               ; preds = %67, %64
  store i32 0, ptr %8, align 4
  br label %119

73:                                               ; preds = %61
  %74 = load ptr, ptr %6, align 8
  %75 = load i8, ptr %74, align 1
  %76 = sext i8 %75 to i32
  switch i32 %76, label %109 [
    i32 92, label %77
    i32 34, label %78
    i32 40, label %85
    i32 41, label %95
  ]

77:                                               ; preds = %73
  store i32 1, ptr %8, align 4
  br label %118

78:                                               ; preds = %73
  %79 = load ptr, ptr %7, align 8
  %80 = getelementptr inbounds i8, ptr %79, i32 1
  store ptr %80, ptr %7, align 8
  store i8 34, ptr %79, align 1
  %81 = load i32, ptr %9, align 4
  %82 = icmp ne i32 %81, 0
  %83 = xor i1 %82, true
  %84 = zext i1 %83 to i32
  store i32 %84, ptr %9, align 4
  br label %118

85:                                               ; preds = %73
  %86 = load i32, ptr %9, align 4
  %87 = icmp ne i32 %86, 0
  br i1 %87, label %88, label %91

88:                                               ; preds = %85
  %89 = load ptr, ptr %7, align 8
  %90 = getelementptr inbounds i8, ptr %89, i32 1
  store ptr %90, ptr %7, align 8
  store i8 40, ptr %89, align 1
  br label %94

91:                                               ; preds = %85
  %92 = load i32, ptr %10, align 4
  %93 = add nsw i32 %92, 1
  store i32 %93, ptr %10, align 4
  br label %94

94:                                               ; preds = %91, %88
  br label %118

95:                                               ; preds = %73
  %96 = load i32, ptr %9, align 4
  %97 = icmp ne i32 %96, 0
  br i1 %97, label %98, label %101

98:                                               ; preds = %95
  %99 = load ptr, ptr %7, align 8
  %100 = getelementptr inbounds i8, ptr %99, i32 1
  store ptr %100, ptr %7, align 8
  store i8 41, ptr %99, align 1
  br label %108

101:                                              ; preds = %95
  %102 = load i32, ptr %10, align 4
  %103 = icmp sgt i32 %102, 0
  br i1 %103, label %104, label %107

104:                                              ; preds = %101
  %105 = load i32, ptr %10, align 4
  %106 = add nsw i32 %105, -1
  store i32 %106, ptr %10, align 4
  br label %107

107:                                              ; preds = %104, %101
  br label %108

108:                                              ; preds = %107, %98
  br label %118

109:                                              ; preds = %73
  %110 = load i32, ptr %10, align 4
  %111 = icmp eq i32 %110, 0
  br i1 %111, label %112, label %117

112:                                              ; preds = %109
  %113 = load ptr, ptr %6, align 8
  %114 = load i8, ptr %113, align 1
  %115 = load ptr, ptr %7, align 8
  %116 = getelementptr inbounds i8, ptr %115, i32 1
  store ptr %116, ptr %7, align 8
  store i8 %114, ptr %115, align 1
  br label %117

117:                                              ; preds = %112, %109
  br label %118

118:                                              ; preds = %117, %108, %94, %78, %77
  br label %119

119:                                              ; preds = %118, %72
  br label %120

120:                                              ; preds = %119
  %121 = load ptr, ptr %6, align 8
  %122 = getelementptr inbounds i8, ptr %121, i32 1
  store ptr %122, ptr %6, align 8
  br label %57

123:                                              ; preds = %57
  %124 = load i32, ptr %8, align 4
  %125 = icmp ne i32 %124, 0
  br i1 %125, label %126, label %129

126:                                              ; preds = %123
  %127 = load ptr, ptr %7, align 8
  %128 = getelementptr inbounds i8, ptr %127, i32 1
  store ptr %128, ptr %7, align 8
  store i8 92, ptr %127, align 1
  br label %129

129:                                              ; preds = %126, %123
  %130 = load ptr, ptr %7, align 8
  store i8 0, ptr %130, align 1
  %131 = load ptr, ptr %4, align 8
  %132 = load ptr, ptr %5, align 8
  call void (ptr, ...) @cli_dbgmsg(ptr noundef @.str.49, ptr noundef %131, ptr noundef %132)
  %133 = load ptr, ptr %5, align 8
  store ptr %133, ptr %3, align 8
  br label %134

134:                                              ; preds = %129, %49, %22, %17
  %135 = load ptr, ptr %3, align 8
  ret ptr %135
}