; Function Attrs: nounwind uwtable
define internal fastcc ptr @rfc822comments(ptr noundef %0, ptr noundef %1) unnamed_addr #0 {
  %3 = icmp eq ptr %0, null
  %4 = icmp eq ptr %1, %0
  %or.cond = or i1 %3, %4
  br i1 %or.cond, label %5, label %6

5:                                                ; preds = %2
  tail call void (ptr, ...) @cli_errmsg(ptr noundef nonnull @.str.46) #19
  br label %60

6:                                                ; preds = %2
  %7 = tail call ptr @strchr(ptr noundef nonnull dereferenceable(1) %0, i32 noundef 40) #21
  %8 = icmp eq ptr %7, null
  br i1 %8, label %60, label %.preheader

.preheader:                                       ; preds = %6
  %9 = tail call ptr @__ctype_b_loc() #22
  %10 = load ptr, ptr %9, align 8
  br label %11

11:                                               ; preds = %11, %.preheader
  %.045 = phi ptr [ %17, %11 ], [ %0, %.preheader ]
  %12 = load i8, ptr %.045, align 1
  %13 = zext i8 %12 to i64
  %14 = getelementptr inbounds i16, ptr %10, i64 %13
  %15 = load i16, ptr %14, align 2
  %16 = and i16 %15, 8192
  %.not = icmp eq i16 %16, 0
  %17 = getelementptr inbounds i8, ptr %.045, i64 1
  br i1 %.not, label %18, label %11

18:                                               ; preds = %11
  %19 = icmp eq ptr %1, null
  br i1 %19, label %20, label %28

20:                                               ; preds = %18
  %21 = tail call i64 @strlen(ptr noundef nonnull dereferenceable(1) %.045) #21
  %22 = add i64 %21, 1
  %23 = tail call ptr @cli_max_malloc(i64 noundef %22) #19
  %24 = icmp eq ptr %23, null
  br i1 %24, label %25, label %28

25:                                               ; preds = %20
  %26 = tail call i64 @strlen(ptr noundef nonnull dereferenceable(1) %.045) #21
  %27 = add i64 %26, 1
  tail call void (ptr, ...) @cli_errmsg(ptr noundef nonnull @.str.47, i64 noundef %27) #19
  br label %60

28:                                               ; preds = %20, %18
  %.044 = phi ptr [ %23, %20 ], [ %1, %18 ]
  tail call void (ptr, ...) @cli_dbgmsg(ptr noundef nonnull @.str.48) #19
  %29 = load i8, ptr %.045, align 1
  %.not5157 = icmp eq i8 %29, 0
  br i1 %.not5157, label %._crit_edge.thread, label %.lr.ph

.lr.ph:                                           ; preds = %28, %54
  %30 = phi i8 [ %57, %54 ], [ %29, %28 ]
  %.062 = phi i32 [ %.1, %54 ], [ 0, %28 ]
  %.03761 = phi i32 [ %.138, %54 ], [ 0, %28 ]
  %.03960 = phi i32 [ %.140, %54 ], [ 0, %28 ]
  %.04159 = phi ptr [ %.2, %54 ], [ %.044, %28 ]
  %.04358 = phi ptr [ %56, %54 ], [ %.045, %28 ]
  %.not53 = icmp eq i32 %.03960, 0
  br i1 %.not53, label %35, label %31

31:                                               ; preds = %.lr.ph
  %32 = icmp eq i32 %.062, 0
  br i1 %32, label %33, label %54

33:                                               ; preds = %31
  %34 = getelementptr inbounds i8, ptr %.04159, i64 1
  store i8 %30, ptr %.04159, align 1
  br label %54

35:                                               ; preds = %.lr.ph
  switch i8 %30, label %50 [
    i8 92, label %54
    i8 34, label %36
    i8 40, label %39
    i8 41, label %44
  ]

36:                                               ; preds = %35
  %37 = getelementptr inbounds i8, ptr %.04159, i64 1
  store i8 34, ptr %.04159, align 1
  %.not56 = icmp eq i32 %.03761, 0
  %38 = zext i1 %.not56 to i32
  br label %54

39:                                               ; preds = %35
  %.not55 = icmp eq i32 %.03761, 0
  br i1 %.not55, label %42, label %40

40:                                               ; preds = %39
  %41 = getelementptr inbounds i8, ptr %.04159, i64 1
  store i8 40, ptr %.04159, align 1
  br label %54

42:                                               ; preds = %39
  %43 = add nsw i32 %.062, 1
  br label %54

44:                                               ; preds = %35
  %.not54 = icmp eq i32 %.03761, 0
  br i1 %.not54, label %47, label %45

45:                                               ; preds = %44
  %46 = getelementptr inbounds i8, ptr %.04159, i64 1
  store i8 41, ptr %.04159, align 1
  br label %54

47:                                               ; preds = %44
  %48 = icmp sgt i32 %.062, 0
  %49 = sext i1 %48 to i32
  %spec.select = add nsw i32 %.062, %49
  br label %54

50:                                               ; preds = %35
  %51 = icmp eq i32 %.062, 0
  br i1 %51, label %52, label %54

52:                                               ; preds = %50
  %53 = getelementptr inbounds i8, ptr %.04159, i64 1
  store i8 %30, ptr %.04159, align 1
  br label %54

54:                                               ; preds = %47, %35, %31, %33, %50, %52, %45, %40, %42, %36
  %.2 = phi ptr [ %53, %52 ], [ %.04159, %50 ], [ %46, %45 ], [ %41, %40 ], [ %.04159, %42 ], [ %37, %36 ], [ %34, %33 ], [ %.04159, %31 ], [ %.04159, %35 ], [ %.04159, %47 ]
  %55 = phi i1 [ true, %52 ], [ true, %50 ], [ true, %45 ], [ true, %40 ], [ true, %42 ], [ true, %36 ], [ true, %33 ], [ true, %31 ], [ false, %35 ], [ true, %47 ]
  %.140 = phi i32 [ 0, %52 ], [ 0, %50 ], [ 0, %45 ], [ 0, %40 ], [ 0, %42 ], [ 0, %36 ], [ 0, %33 ], [ 0, %31 ], [ 1, %35 ], [ 0, %47 ]
  %.138 = phi i32 [ %.03761, %52 ], [ %.03761, %50 ], [ 1, %45 ], [ 1, %40 ], [ 0, %42 ], [ %38, %36 ], [ %.03761, %33 ], [ %.03761, %31 ], [ %.03761, %35 ], [ 0, %47 ]
  %.1 = phi i32 [ 0, %52 ], [ %.062, %50 ], [ %.062, %45 ], [ %.062, %40 ], [ %43, %42 ], [ %.062, %36 ], [ 0, %33 ], [ %.062, %31 ], [ %.062, %35 ], [ %spec.select, %47 ]
  %56 = getelementptr inbounds i8, ptr %.04358, i64 1
  %57 = load i8, ptr %56, align 1
  %.not51 = icmp eq i8 %57, 0
  br i1 %.not51, label %._crit_edge, label %.lr.ph

._crit_edge:                                      ; preds = %54
  br i1 %55, label %._crit_edge.thread, label %58

58:                                               ; preds = %._crit_edge
  %59 = getelementptr inbounds i8, ptr %.2, i64 1
  store i8 92, ptr %.2, align 1
  br label %._crit_edge.thread

._crit_edge.thread:                               ; preds = %28, %58, %._crit_edge
  %.3 = phi ptr [ %59, %58 ], [ %.2, %._crit_edge ], [ %.044, %28 ]
  store i8 0, ptr %.3, align 1
  tail call void (ptr, ...) @cli_dbgmsg(ptr noundef nonnull @.str.49, ptr noundef nonnull %.045, ptr noundef nonnull %.044) #19
  br label %60

60:                                               ; preds = %6, %._crit_edge.thread, %25, %5
  %.046 = phi ptr [ null, %5 ], [ null, %25 ], [ %.044, %._crit_edge.thread ], [ null, %6 ]
  ret ptr %.046
}